target datalayout = "e-m:e-p270:32:32-p271:32:32-p272:64:64-i64:64-i128:128-f80:128-n8:16:32:64-S128"
target triple = "x86_64-unknown-linux-gnu"

%struct.ecc_point = type { [1 x %struct.sp_int], [1 x %struct.sp_int], [1 x %struct.sp_int] }
%struct.sp_int = type { i32, i32, [129 x i64] }

; Function Attrs: nounwind uwtable
define internal i32 @ecc_mont_norm_points(ptr noundef %A, ptr noundef %Am, ptr noundef %B, ptr noundef %Bm, ptr noundef %modulus, ptr noundef %heap) #0 {
entry:
  %A.addr = alloca ptr, align 8
  %Am.addr = alloca ptr, align 8
  %B.addr = alloca ptr, align 8
  %Bm.addr = alloca ptr, align 8
  %modulus.addr = alloca ptr, align 8
  %heap.addr = alloca ptr, align 8
  %err = alloca i32, align 4
  %saved_stack = alloca ptr, align 8
  %__vla_expr0 = alloca i64, align 8
  %mu = alloca ptr, align 8
  store ptr %A, ptr %A.addr, align 8
  store ptr %Am, ptr %Am.addr, align 8
  store ptr %B, ptr %B.addr, align 8
  store ptr %Bm, ptr %Bm.addr, align 8
  store ptr %modulus, ptr %modulus.addr, align 8
  store ptr %heap, ptr %heap.addr, align 8
  store i32 0, ptr %err, align 4
  %0 = load ptr, ptr %modulus.addr, align 8
  %used = getelementptr inbounds %struct.sp_int, ptr %0, i32 0, i32 0
  %1 = load i32, ptr %used, align 8
  %mul = mul i32 %1, 64
  %add = add i32 %mul, 64
  %sub = sub i32 %add, 1
  %div = udiv i32 %sub, 64
  %mul1 = mul i32 %div, 2
  %add2 = add i32 %mul1, 1
  %cmp = icmp ule i32 %add2, 1
  br i1 %cmp, label %cond.true, label %cond.false

cond.true:                                        ; preds = %entry
  br label %cond.end

cond.false:                                       ; preds = %entry
  %2 = load ptr, ptr %modulus.addr, align 8
  %used3 = getelementptr inbounds %struct.sp_int, ptr %2, i32 0, i32 0
  %3 = load i32, ptr %used3, align 8
  %mul4 = mul i32 %3, 64
  %add5 = add i32 %mul4, 64
  %sub6 = sub i32 %add5, 1
  %div7 = udiv i32 %sub6, 64
  %mul8 = mul i32 %div7, 2
  %add9 = add i32 %mul8, 1
  %sub10 = sub i32 %add9, 1
  br label %cond.end

cond.end:                                         ; preds = %cond.false, %cond.true
  %cond = phi i32 [ 0, %cond.true ], [ %sub10, %cond.false ]
  %conv = zext i32 %cond to i64
  %mul11 = mul i64 %conv, 8
  %add12 = add i64 16, %mul11
  %4 = call ptr @llvm.stacksave.p0()
  store ptr %4, ptr %saved_stack, align 8
  %vla = alloca i8, i64 %add12, align 16
  store i64 %add12, ptr %__vla_expr0, align 8
  store ptr %vla, ptr %mu, align 8
  %5 = load ptr, ptr %mu, align 8
  %6 = load ptr, ptr %modulus.addr, align 8
  %used13 = getelementptr inbounds %struct.sp_int, ptr %6, i32 0, i32 0
  %7 = load i32, ptr %used13, align 8
  %mul14 = mul i32 %7, 64
  %add15 = add i32 %mul14, 64
  %sub16 = sub i32 %add15, 1
  %div17 = udiv i32 %sub16, 64
  %mul18 = mul i32 %div17, 2
  %add19 = add i32 %mul18, 1
  %cmp20 = icmp ule i32 %add19, 1
  br i1 %cmp20, label %cond.true22, label %cond.false23

cond.true22:                                      ; preds = %cond.end
  br label %cond.end32

cond.false23:                                     ; preds = %cond.end
  %8 = load ptr, ptr %modulus.addr, align 8
  %used24 = getelementptr inbounds %struct.sp_int, ptr %8, i32 0, i32 0
  %9 = load i32, ptr %used24, align 8
  %mul25 = mul i32 %9, 64
  %add26 = add i32 %mul25, 64
  %sub27 = sub i32 %add26, 1
  %div28 = udiv i32 %sub27, 64
  %mul29 = mul i32 %div28, 2
  %add30 = add i32 %mul29, 1
  %sub31 = sub i32 %add30, 1
  br label %cond.end32

cond.end32:                                       ; preds = %cond.false23, %cond.true22
  %cond33 = phi i32 [ 0, %cond.true22 ], [ %sub31, %cond.false23 ]
  %conv34 = zext i32 %cond33 to i64
  %mul35 = mul i64 %conv34, 8
  %add36 = add i64 16, %mul35
  call void @llvm.memset.p0.i64(ptr align 8 %5, i8 0, i64 %add36, i1 false)
  %10 = load i32, ptr %err, align 4
  %cmp37 = icmp eq i32 %10, 0
  br i1 %cmp37, label %if.then, label %if.end

if.then:                                          ; preds = %cond.end32
  %11 = load ptr, ptr %mu, align 8
  %12 = load ptr, ptr %modulus.addr, align 8
  %used39 = getelementptr inbounds %struct.sp_int, ptr %12, i32 0, i32 0
  %13 = load i32, ptr %used39, align 8
  %mul40 = mul i32 %13, 64
  %add41 = add i32 %mul40, 64
  %sub42 = sub i32 %add41, 1
  %div43 = udiv i32 %sub42, 64
  %mul44 = mul i32 %div43, 2
  %add45 = add i32 %mul44, 1
  %call = call i32 @sp_init_size(ptr noundef %11, i32 noundef %add45)
  store i32 %call, ptr %err, align 4
  br label %if.end

if.end:                                           ; preds = %if.then, %cond.end32
  %14 = load i32, ptr %err, align 4
  %cmp46 = icmp eq i32 %14, 0
  br i1 %cmp46, label %if.then48, label %if.end100

if.then48:                                        ; preds = %if.end
  %15 = load ptr, ptr %mu, align 8
  %16 = load ptr, ptr %modulus.addr, align 8
  %call49 = call i32 @sp_mont_norm(ptr noundef %15, ptr noundef %16)
  store i32 %call49, ptr %err, align 4
  %17 = load i32, ptr %err, align 4
  %cmp50 = icmp eq i32 %17, 0
  br i1 %cmp50, label %if.then52, label %if.end56

if.then52:                                        ; preds = %if.then48
  %18 = load ptr, ptr %A.addr, align 8
  %x = getelementptr inbounds %struct.ecc_point, ptr %18, i32 0, i32 0
  %arraydecay = getelementptr inbounds [1 x %struct.sp_int], ptr %x, i64 0, i64 0
  %19 = load ptr, ptr %mu, align 8
  %20 = load ptr, ptr %modulus.addr, align 8
  %21 = load ptr, ptr %Am.addr, align 8
  %x53 = getelementptr inbounds %struct.ecc_point, ptr %21, i32 0, i32 0
  %arraydecay54 = getelementptr inbounds [1 x %struct.sp_int], ptr %x53, i64 0, i64 0
  %call55 = call i32 @sp_mulmod(ptr noundef %arraydecay, ptr noundef %19, ptr noundef %20, ptr noundef %arraydecay54)
  store i32 %call55, ptr %err, align 4
  br label %if.end56

if.end56:                                         ; preds = %if.then52, %if.then48
  %22 = load i32, ptr %err, align 4
  %cmp57 = icmp eq i32 %22, 0
  br i1 %cmp57, label %if.then59, label %if.end64

if.then59:                                        ; preds = %if.end56
  %23 = load ptr, ptr %A.addr, align 8
  %y = getelementptr inbounds %struct.ecc_point, ptr %23, i32 0, i32 1
  %arraydecay60 = getelementptr inbounds [1 x %struct.sp_int], ptr %y, i64 0, i64 0
  %24 = load ptr, ptr %mu, align 8
  %25 = load ptr, ptr %modulus.addr, align 8
  %26 = load ptr, ptr %Am.addr, align 8
  %y61 = getelementptr inbounds %struct.ecc_point, ptr %26, i32 0, i32 1
  %arraydecay62 = getelementptr inbounds [1 x %struct.sp_int], ptr %y61, i64 0, i64 0
  %call63 = call i32 @sp_mulmod(ptr noundef %arraydecay60, ptr noundef %24, ptr noundef %25, ptr noundef %arraydecay62)
  store i32 %call63, ptr %err, align 4
  br label %if.end64

if.end64:                                         ; preds = %if.then59, %if.end56
  %27 = load i32, ptr %err, align 4
  %cmp65 = icmp eq i32 %27, 0
  br i1 %cmp65, label %if.then67, label %if.end72

if.then67:                                        ; preds = %if.end64
  %28 = load ptr, ptr %A.addr, align 8
  %z = getelementptr inbounds %struct.ecc_point, ptr %28, i32 0, i32 2
  %arraydecay68 = getelementptr inbounds [1 x %struct.sp_int], ptr %z, i64 0, i64 0
  %29 = load ptr, ptr %mu, align 8
  %30 = load ptr, ptr %modulus.addr, align 8
  %31 = load ptr, ptr %Am.addr, align 8
  %z69 = getelementptr inbounds %struct.ecc_point, ptr %31, i32 0, i32 2
  %arraydecay70 = getelementptr inbounds [1 x %struct.sp_int], ptr %z69, i64 0, i64 0
  %call71 = call i32 @sp_mulmod(ptr noundef %arraydecay68, ptr noundef %29, ptr noundef %30, ptr noundef %arraydecay70)
  store i32 %call71, ptr %err, align 4
  br label %if.end72

if.end72:                                         ; preds = %if.then67, %if.end64
  %32 = load i32, ptr %err, align 4
  %cmp73 = icmp eq i32 %32, 0
  br i1 %cmp73, label %if.then75, label %if.end81

if.then75:                                        ; preds = %if.end72
  %33 = load ptr, ptr %B.addr, align 8
  %x76 = getelementptr inbounds %struct.ecc_point, ptr %33, i32 0, i32 0
  %arraydecay77 = getelementptr inbounds [1 x %struct.sp_int], ptr %x76, i64 0, i64 0
  %34 = load ptr, ptr %mu, align 8
  %35 = load ptr, ptr %modulus.addr, align 8
  %36 = load ptr, ptr %Bm.addr, align 8
  %x78 = getelementptr inbounds %struct.ecc_point, ptr %36, i32 0, i32 0
  %arraydecay79 = getelementptr inbounds [1 x %struct.sp_int], ptr %x78, i64 0, i64 0
  %call80 = call i32 @sp_mulmod(ptr noundef %arraydecay77, ptr noundef %34, ptr noundef %35, ptr noundef %arraydecay79)
  store i32 %call80, ptr %err, align 4
  br label %if.end81

if.end81:                                         ; preds = %if.then75, %if.end72
  %37 = load i32, ptr %err, align 4
  %cmp82 = icmp eq i32 %37, 0
  br i1 %cmp82, label %if.then84, label %if.end90

if.then84:                                        ; preds = %if.end81
  %38 = load ptr, ptr %B.addr, align 8
  %y85 = getelementptr inbounds %struct.ecc_point, ptr %38, i32 0, i32 1
  %arraydecay86 = getelementptr inbounds [1 x %struct.sp_int], ptr %y85, i64 0, i64 0
  %39 = load ptr, ptr %mu, align 8
  %40 = load ptr, ptr %modulus.addr, align 8
  %41 = load ptr, ptr %Bm.addr, align 8
  %y87 = getelementptr inbounds %struct.ecc_point, ptr %41, i32 0, i32 1
  %arraydecay88 = getelementptr inbounds [1 x %struct.sp_int], ptr %y87, i64 0, i64 0
  %call89 = call i32 @sp_mulmod(ptr noundef %arraydecay86, ptr noundef %39, ptr noundef %40, ptr noundef %arraydecay88)
  store i32 %call89, ptr %err, align 4
  br label %if.end90

if.end90:                                         ; preds = %if.then84, %if.end81
  %42 = load i32, ptr %err, align 4
  %cmp91 = icmp eq i32 %42, 0
  br i1 %cmp91, label %if.then93, label %if.end99

if.then93:                                        ; preds = %if.end90
  %43 = load ptr, ptr %B.addr, align 8
  %z94 = getelementptr inbounds %struct.ecc_point, ptr %43, i32 0, i32 2
  %arraydecay95 = getelementptr inbounds [1 x %struct.sp_int], ptr %z94, i64 0, i64 0
  %44 = load ptr, ptr %mu, align 8
  %45 = load ptr, ptr %modulus.addr, align 8
  %46 = load ptr, ptr %Bm.addr, align 8
  %z96 = getelementptr inbounds %struct.ecc_point, ptr %46, i32 0, i32 2
  %arraydecay97 = getelementptr inbounds [1 x %struct.sp_int], ptr %z96, i64 0, i64 0
  %call98 = call i32 @sp_mulmod(ptr noundef %arraydecay95, ptr noundef %44, ptr noundef %45, ptr noundef %arraydecay97)
  store i32 %call98, ptr %err, align 4
  br label %if.end99

if.end99:                                         ; preds = %if.then93, %if.end90
  %47 = load ptr, ptr %mu, align 8
  call void @sp_clear(ptr noundef %47)
  br label %if.end100

if.end100:                                        ; preds = %if.end99, %if.end
  br label %do.body

do.body:                                          ; preds = %if.end100
  br label %do.cond

do.cond:                                          ; preds = %do.body
  br label %do.end

do.end:                                           ; preds = %do.cond
  %48 = load i32, ptr %err, align 4
  %49 = load ptr, ptr %saved_stack, align 8
  call void @llvm.stackrestore.p0(ptr %49)
  ret i32 %48
}