; Function Attrs: nounwind uwtable
define internal fastcc i32 @ecc_mont_norm_points(ptr noundef nonnull %A, ptr noundef %Am, ptr noundef nonnull %B, ptr noundef %Bm, ptr noundef %modulus) unnamed_addr #2 {
entry:
  %0 = load i32, ptr %modulus, align 8
  %mul = shl i32 %0, 1
  %mul1 = and i32 %mul, 134217726
  %1 = shl nuw nsw i32 %mul1, 3
  %narrow = add nuw nsw i32 %1, 16
  %2 = zext nneg i32 %narrow to i64
  %vla = alloca i8, i64 %2, align 16
  call void @llvm.memset.p0.i64(ptr noundef nonnull align 16 dereferenceable(1) %vla, i8 0, i64 %2, i1 false)
  %add45 = or disjoint i32 %mul1, 1
  %call = call i32 @sp_init_size(ptr noundef nonnull %vla, i32 noundef %add45) #19
  %cmp46 = icmp eq i32 %call, 0
  br i1 %cmp46, label %if.then48, label %do.end

if.then48:                                        ; preds = %entry
  %call49 = call i32 @sp_mont_norm(ptr noundef nonnull %vla, ptr noundef nonnull %modulus) #19
  %cmp50 = icmp eq i32 %call49, 0
  br i1 %cmp50, label %if.end56, label %if.end99

if.end56:                                         ; preds = %if.then48
  %call55 = call i32 @sp_mulmod(ptr noundef nonnull %A, ptr noundef nonnull %vla, ptr noundef nonnull %modulus, ptr noundef %Am) #19
  %cmp57 = icmp eq i32 %call55, 0
  br i1 %cmp57, label %if.end64, label %if.end99

if.end64:                                         ; preds = %if.end56
  %y = getelementptr inbounds nuw i8, ptr %A, i64 1040
  %y61 = getelementptr inbounds nuw i8, ptr %Am, i64 1040
  %call63 = call i32 @sp_mulmod(ptr noundef nonnull %y, ptr noundef nonnull %vla, ptr noundef nonnull %modulus, ptr noundef nonnull %y61) #19
  %cmp65 = icmp eq i32 %call63, 0
  br i1 %cmp65, label %if.end72, label %if.end99

if.end72:                                         ; preds = %if.end64
  %z = getelementptr inbounds nuw i8, ptr %A, i64 2080
  %z69 = getelementptr inbounds nuw i8, ptr %Am, i64 2080
  %call71 = call i32 @sp_mulmod(ptr noundef nonnull %z, ptr noundef nonnull %vla, ptr noundef nonnull %modulus, ptr noundef nonnull %z69) #19
  %cmp73 = icmp eq i32 %call71, 0
  br i1 %cmp73, label %if.end81, label %if.end99

if.end81:                                         ; preds = %if.end72
  %call80 = call i32 @sp_mulmod(ptr noundef nonnull %B, ptr noundef nonnull %vla, ptr noundef nonnull %modulus, ptr noundef %Bm) #19
  %cmp82 = icmp eq i32 %call80, 0
  br i1 %cmp82, label %if.end90, label %if.end99

if.end90:                                         ; preds = %if.end81
  %y85 = getelementptr inbounds nuw i8, ptr %B, i64 1040
  %y87 = getelementptr inbounds nuw i8, ptr %Bm, i64 1040
  %call89 = call i32 @sp_mulmod(ptr noundef nonnull %y85, ptr noundef nonnull %vla, ptr noundef nonnull %modulus, ptr noundef nonnull %y87) #19
  %cmp91 = icmp eq i32 %call89, 0
  br i1 %cmp91, label %if.then93, label %if.end99

if.then93:                                        ; preds = %if.end90
  %z94 = getelementptr inbounds nuw i8, ptr %B, i64 2080
  %z96 = getelementptr inbounds nuw i8, ptr %Bm, i64 2080
  %call98 = call i32 @sp_mulmod(ptr noundef nonnull %z94, ptr noundef nonnull %vla, ptr noundef nonnull %modulus, ptr noundef nonnull %z96) #19
  br label %if.end99

if.end99:                                         ; preds = %if.then48, %if.end56, %if.end64, %if.end72, %if.end81, %if.then93, %if.end90
  %err.6 = phi i32 [ %call98, %if.then93 ], [ %call89, %if.end90 ], [ %call80, %if.end81 ], [ %call71, %if.end72 ], [ %call63, %if.end64 ], [ %call55, %if.end56 ], [ %call49, %if.then48 ]
  call void @sp_clear(ptr noundef nonnull %vla) #19
  br label %do.end

do.end:                                           ; preds = %entry, %if.end99
  %err.7 = phi i32 [ %err.6, %if.end99 ], [ %call, %entry ]
  ret i32 %err.7
}